target datalayout = "e-m:e-p270:32:32-p271:32:32-p272:64:64-i64:64-i128:128-f80:128-n8:16:32:64-S128"
target triple = "x86_64-pc-linux-gnu"

%"struct.__gnu_cxx::__ops::_Iter_comp_iter" = type { i8 }

; Function Attrs: mustprogress uwtable
define internal void @"_ZSt22__stable_sort_adaptiveIPP4exprS2_lN9__gnu_cxx5__ops15_Iter_comp_iterIZN17bv2int_translator17ensure_translatedES1_E3$_0EEEvT_S9_T0_T1_T2_"(ptr noundef %0, ptr noundef %1, ptr noundef %2, i64 noundef %3) #4 {
  %5 = alloca %"struct.__gnu_cxx::__ops::_Iter_comp_iter", align 1
  %6 = alloca ptr, align 8
  %7 = alloca ptr, align 8
  %8 = alloca ptr, align 8
  %9 = alloca i64, align 8
  %10 = alloca i64, align 8
  %11 = alloca ptr, align 8
  %12 = alloca %"struct.__gnu_cxx::__ops::_Iter_comp_iter", align 1
  %13 = alloca %"struct.__gnu_cxx::__ops::_Iter_comp_iter", align 1
  %14 = alloca %"struct.__gnu_cxx::__ops::_Iter_comp_iter", align 1
  %15 = alloca %"struct.__gnu_cxx::__ops::_Iter_comp_iter", align 1
  %16 = alloca %"struct.__gnu_cxx::__ops::_Iter_comp_iter", align 1
  store ptr %0, ptr %6, align 8, !tbaa !83
  store ptr %1, ptr %7, align 8, !tbaa !83
  store ptr %2, ptr %8, align 8, !tbaa !83
  store i64 %3, ptr %9, align 8, !tbaa !221
  call void @llvm.lifetime.start.p0(i64 8, ptr %10) #3
  %17 = load ptr, ptr %7, align 8, !tbaa !83
  %18 = load ptr, ptr %6, align 8, !tbaa !83
  %19 = ptrtoint ptr %17 to i64
  %20 = ptrtoint ptr %18 to i64
  %21 = sub i64 %19, %20
  %22 = sdiv exact i64 %21, 8
  %23 = add nsw i64 %22, 1
  %24 = sdiv i64 %23, 2
  store i64 %24, ptr %10, align 8, !tbaa !221
  call void @llvm.lifetime.start.p0(i64 8, ptr %11) #3
  %25 = load ptr, ptr %6, align 8, !tbaa !83
  %26 = load i64, ptr %10, align 8, !tbaa !221
  %27 = getelementptr inbounds ptr, ptr %25, i64 %26
  store ptr %27, ptr %11, align 8, !tbaa !83
  %28 = load i64, ptr %10, align 8, !tbaa !221
  %29 = load i64, ptr %9, align 8, !tbaa !221
  %30 = icmp sgt i64 %28, %29
  br i1 %30, label %31, label %40

31:                                               ; preds = %4
  %32 = load ptr, ptr %6, align 8, !tbaa !83
  %33 = load ptr, ptr %11, align 8, !tbaa !83
  %34 = load ptr, ptr %8, align 8, !tbaa !83
  %35 = load i64, ptr %9, align 8, !tbaa !221
  call void @llvm.memcpy.p0.p0.i64(ptr align 1 %12, ptr align 1 %5, i64 1, i1 false), !tbaa.struct !59
  call void @"_ZSt22__stable_sort_adaptiveIPP4exprS2_lN9__gnu_cxx5__ops15_Iter_comp_iterIZN17bv2int_translator17ensure_translatedES1_E3$_0EEEvT_S9_T0_T1_T2_"(ptr noundef %32, ptr noundef %33, ptr noundef %34, i64 noundef %35)
  %36 = load ptr, ptr %11, align 8, !tbaa !83
  %37 = load ptr, ptr %7, align 8, !tbaa !83
  %38 = load ptr, ptr %8, align 8, !tbaa !83
  %39 = load i64, ptr %9, align 8, !tbaa !221
  call void @llvm.memcpy.p0.p0.i64(ptr align 1 %13, ptr align 1 %5, i64 1, i1 false), !tbaa.struct !59
  call void @"_ZSt22__stable_sort_adaptiveIPP4exprS2_lN9__gnu_cxx5__ops15_Iter_comp_iterIZN17bv2int_translator17ensure_translatedES1_E3$_0EEEvT_S9_T0_T1_T2_"(ptr noundef %36, ptr noundef %37, ptr noundef %38, i64 noundef %39)
  br label %47

40:                                               ; preds = %4
  %41 = load ptr, ptr %6, align 8, !tbaa !83
  %42 = load ptr, ptr %11, align 8, !tbaa !83
  %43 = load ptr, ptr %8, align 8, !tbaa !83
  call void @llvm.memcpy.p0.p0.i64(ptr align 1 %14, ptr align 1 %5, i64 1, i1 false), !tbaa.struct !59
  call void @"_ZSt24__merge_sort_with_bufferIPP4exprS2_N9__gnu_cxx5__ops15_Iter_comp_iterIZN17bv2int_translator17ensure_translatedES1_E3$_0EEEvT_S9_T0_T1_"(ptr noundef %41, ptr noundef %42, ptr noundef %43)
  %44 = load ptr, ptr %11, align 8, !tbaa !83
  %45 = load ptr, ptr %7, align 8, !tbaa !83
  %46 = load ptr, ptr %8, align 8, !tbaa !83
  call void @llvm.memcpy.p0.p0.i64(ptr align 1 %15, ptr align 1 %5, i64 1, i1 false), !tbaa.struct !59
  call void @"_ZSt24__merge_sort_with_bufferIPP4exprS2_N9__gnu_cxx5__ops15_Iter_comp_iterIZN17bv2int_translator17ensure_translatedES1_E3$_0EEEvT_S9_T0_T1_"(ptr noundef %44, ptr noundef %45, ptr noundef %46)
  br label %47

47:                                               ; preds = %40, %31
  %48 = load ptr, ptr %6, align 8, !tbaa !83
  %49 = load ptr, ptr %11, align 8, !tbaa !83
  %50 = load ptr, ptr %7, align 8, !tbaa !83
  %51 = load ptr, ptr %11, align 8, !tbaa !83
  %52 = load ptr, ptr %6, align 8, !tbaa !83
  %53 = ptrtoint ptr %51 to i64
  %54 = ptrtoint ptr %52 to i64
  %55 = sub i64 %53, %54
  %56 = sdiv exact i64 %55, 8
  %57 = load ptr, ptr %7, align 8, !tbaa !83
  %58 = load ptr, ptr %11, align 8, !tbaa !83
  %59 = ptrtoint ptr %57 to i64
  %60 = ptrtoint ptr %58 to i64
  %61 = sub i64 %59, %60
  %62 = sdiv exact i64 %61, 8
  %63 = load ptr, ptr %8, align 8, !tbaa !83
  %64 = load i64, ptr %9, align 8, !tbaa !221
  call void @llvm.memcpy.p0.p0.i64(ptr align 1 %16, ptr align 1 %5, i64 1, i1 false), !tbaa.struct !59
  call void @"_ZSt16__merge_adaptiveIPP4exprlS2_N9__gnu_cxx5__ops15_Iter_comp_iterIZN17bv2int_translator17ensure_translatedES1_E3$_0EEEvT_S9_S9_T0_SA_T1_SA_T2_"(ptr noundef %48, ptr noundef %49, ptr noundef %50, i64 noundef %56, i64 noundef %62, ptr noundef %63, i64 noundef %64)
  call void @llvm.lifetime.end.p0(i64 8, ptr %11) #3
  call void @llvm.lifetime.end.p0(i64 8, ptr %10) #3
  ret void
}